TMS320C6x Assembler PC v7.4.18 Thu Nov 07 11:18:03 2019

Tools Copyright (c) 1996-2015 Texas Instruments Incorporated
../Vectors_intr.asm                                                  PAGE    1

       1                    ;Vectors_intr.asm Vector file for interrupt INT11
       2                       .global _vectors                     ;global symbols
       3                       .global _c_int00
       4                       .global _vector1
       5                       .global _vector2
       6                       .global _vector3
       7                       .global _vector4
       8                       .global _vector5
       9                       .global _vector6
      10                       .global _vector7
      11                       .global _vector8
      12                       .global _vector9       
      13                       .global _vector10 
      14                       .global _c_int11                     ;for INT11
      15                       .global _vector12  
      16                       .global _vector13   
      17                       .global _vector14
      18                    
      19                    
      20                       .global _vector15
      21                    
      22                       .ref _c_int00                                ;entry address
      23                    
      24                    VEC_ENTRY .macro addr                   ;macro for ISR
      25                        STW   B0,*--B15
      26                        MVKL  addr,B0
      27                        MVKH  addr,B0
      28                        B     B0
      29                        LDW   *B15++,B0
      30                        NOP   2
      31                        NOP   
      32                        NOP   
      33                       .endm
      34                    
      35 00000000           _vec_dummy:
      36 00000000 000C0362    B    B3
      37 00000004 00008000    NOP  5
      38                    
      39 00000000            .sect ".vecs"                          ;aligned IST section
      40                     .align 1024
      41 00000000           _vectors:
      42 00000000           _vector0:   VEC_ENTRY _c_int00          ;RESET
1        00000000 003C30F6      STW   B0,*--B15
1        00000004 0000002A!     MVKL  _c_int00,B0
1        00000008 0000006A!     MVKH  _c_int00,B0
1        0000000c 00000362      B     B0
1        00000010 003C36E6      LDW   *B15++,B0
1        00000014 00002000      NOP   2
1        00000018 00000000      NOP   
1        0000001c 00000000      NOP   
      43 00000020           _vector1:   VEC_ENTRY _vec_dummy        ;NMI
1        00000020 003C30F6      STW   B0,*--B15
1        00000024 0000002A'     MVKL  _vec_dummy,B0
1        00000028 0000006A'     MVKH  _vec_dummy,B0
1        0000002c 00000362      B     B0
TMS320C6x Assembler PC v7.4.18 Thu Nov 07 11:18:03 2019

Tools Copyright (c) 1996-2015 Texas Instruments Incorporated
../Vectors_intr.asm                                                  PAGE    2

1        00000030 003C36E6      LDW   *B15++,B0
1        00000034 00002000      NOP   2
1        00000038 00000000      NOP   
1        0000003c 00000000      NOP   
      44 00000040           _vector2:   VEC_ENTRY _vec_dummy        ;RSVD
1        00000040 003C30F6      STW   B0,*--B15
1        00000044 0000002A'     MVKL  _vec_dummy,B0
1        00000048 0000006A'     MVKH  _vec_dummy,B0
1        0000004c 00000362      B     B0
1        00000050 003C36E6      LDW   *B15++,B0
1        00000054 00002000      NOP   2
1        00000058 00000000      NOP   
1        0000005c 00000000      NOP   
      45 00000060           _vector3:   VEC_ENTRY _vec_dummy
1        00000060 003C30F6      STW   B0,*--B15
1        00000064 0000002A'     MVKL  _vec_dummy,B0
1        00000068 0000006A'     MVKH  _vec_dummy,B0
1        0000006c 00000362      B     B0
1        00000070 003C36E6      LDW   *B15++,B0
1        00000074 00002000      NOP   2
1        00000078 00000000      NOP   
1        0000007c 00000000      NOP   
      46 00000080           _vector4:   VEC_ENTRY _vec_dummy
1        00000080 003C30F6      STW   B0,*--B15
1        00000084 0000002A'     MVKL  _vec_dummy,B0
1        00000088 0000006A'     MVKH  _vec_dummy,B0
1        0000008c 00000362      B     B0
1        00000090 003C36E6      LDW   *B15++,B0
1        00000094 00002000      NOP   2
1        00000098 00000000      NOP   
1        0000009c 00000000      NOP   
      47 000000a0           _vector5:   VEC_ENTRY _vec_dummy
1        000000a0 003C30F6      STW   B0,*--B15
1        000000a4 0000002A'     MVKL  _vec_dummy,B0
1        000000a8 0000006A'     MVKH  _vec_dummy,B0
1        000000ac 00000362      B     B0
1        000000b0 003C36E6      LDW   *B15++,B0
1        000000b4 00002000      NOP   2
1        000000b8 00000000      NOP   
1        000000bc 00000000      NOP   
      48 000000c0           _vector6:   VEC_ENTRY _vec_dummy
1        000000c0 003C30F6      STW   B0,*--B15
1        000000c4 0000002A'     MVKL  _vec_dummy,B0
1        000000c8 0000006A'     MVKH  _vec_dummy,B0
1        000000cc 00000362      B     B0
1        000000d0 003C36E6      LDW   *B15++,B0
1        000000d4 00002000      NOP   2
1        000000d8 00000000      NOP   
1        000000dc 00000000      NOP   
      49 000000e0           _vector7:   VEC_ENTRY _vec_dummy
1        000000e0 003C30F6      STW   B0,*--B15
1        000000e4 0000002A'     MVKL  _vec_dummy,B0
1        000000e8 0000006A'     MVKH  _vec_dummy,B0
1        000000ec 00000362      B     B0
1        000000f0 003C36E6      LDW   *B15++,B0
TMS320C6x Assembler PC v7.4.18 Thu Nov 07 11:18:03 2019

Tools Copyright (c) 1996-2015 Texas Instruments Incorporated
../Vectors_intr.asm                                                  PAGE    3

1        000000f4 00002000      NOP   2
1        000000f8 00000000      NOP   
1        000000fc 00000000      NOP   
      50 00000100           _vector8:   VEC_ENTRY _vec_dummy
1        00000100 003C30F6      STW   B0,*--B15
1        00000104 0000002A'     MVKL  _vec_dummy,B0
1        00000108 0000006A'     MVKH  _vec_dummy,B0
1        0000010c 00000362      B     B0
1        00000110 003C36E6      LDW   *B15++,B0
1        00000114 00002000      NOP   2
1        00000118 00000000      NOP   
1        0000011c 00000000      NOP   
      51 00000120           _vector9:   VEC_ENTRY _vec_dummy
1        00000120 003C30F6      STW   B0,*--B15
1        00000124 0000002A'     MVKL  _vec_dummy,B0
1        00000128 0000006A'     MVKH  _vec_dummy,B0
1        0000012c 00000362      B     B0
1        00000130 003C36E6      LDW   *B15++,B0
1        00000134 00002000      NOP   2
1        00000138 00000000      NOP   
1        0000013c 00000000      NOP   
      52 00000140           _vector10:  VEC_ENTRY _vec_dummy
1        00000140 003C30F6      STW   B0,*--B15
1        00000144 0000002A'     MVKL  _vec_dummy,B0
1        00000148 0000006A'     MVKH  _vec_dummy,B0
1        0000014c 00000362      B     B0
1        00000150 003C36E6      LDW   *B15++,B0
1        00000154 00002000      NOP   2
1        00000158 00000000      NOP   
1        0000015c 00000000      NOP   
      53 00000160           _vector11:  VEC_ENTRY _c_int11          ;ISR address
1        00000160 003C30F6      STW   B0,*--B15
1        00000164 0000002A!     MVKL  _c_int11,B0
1        00000168 0000006A!     MVKH  _c_int11,B0
1        0000016c 00000362      B     B0
1        00000170 003C36E6      LDW   *B15++,B0
1        00000174 00002000      NOP   2
1        00000178 00000000      NOP   
1        0000017c 00000000      NOP   
      54 00000180           _vector12:  VEC_ENTRY _vec_dummy
1        00000180 003C30F6      STW   B0,*--B15
1        00000184 0000002A'     MVKL  _vec_dummy,B0
1        00000188 0000006A'     MVKH  _vec_dummy,B0
1        0000018c 00000362      B     B0
1        00000190 003C36E6      LDW   *B15++,B0
1        00000194 00002000      NOP   2
1        00000198 00000000      NOP   
1        0000019c 00000000      NOP   
      55 000001a0           _vector13:  VEC_ENTRY _vec_dummy
1        000001a0 003C30F6      STW   B0,*--B15
1        000001a4 0000002A'     MVKL  _vec_dummy,B0
1        000001a8 0000006A'     MVKH  _vec_dummy,B0
1        000001ac 00000362      B     B0
1        000001b0 003C36E6      LDW   *B15++,B0
1        000001b4 00002000      NOP   2
TMS320C6x Assembler PC v7.4.18 Thu Nov 07 11:18:03 2019

Tools Copyright (c) 1996-2015 Texas Instruments Incorporated
../Vectors_intr.asm                                                  PAGE    4

1        000001b8 00000000      NOP   
1        000001bc 00000000      NOP   
      56 000001c0           _vector14:  VEC_ENTRY _vec_dummy
1        000001c0 003C30F6      STW   B0,*--B15
1        000001c4 0000002A'     MVKL  _vec_dummy,B0
1        000001c8 0000006A'     MVKH  _vec_dummy,B0
1        000001cc 00000362      B     B0
1        000001d0 003C36E6      LDW   *B15++,B0
1        000001d4 00002000      NOP   2
1        000001d8 00000000      NOP   
1        000001dc 00000000      NOP   
      57 000001e0           _vector15:  VEC_ENTRY _vec_dummy
1        000001e0 003C30F6      STW   B0,*--B15
1        000001e4 0000002A'     MVKL  _vec_dummy,B0
1        000001e8 0000006A'     MVKH  _vec_dummy,B0
1        000001ec 00000362      B     B0
1        000001f0 003C36E6      LDW   *B15++,B0
1        000001f4 00002000      NOP   2
1        000001f8 00000000      NOP   
1        000001fc 00000000      NOP   

No Assembly Errors, No Assembly Warnings
